target datalayout = "e-m:e-p270:32:32-p271:32:32-p272:64:64-i64:64-i128:128-f80:128-n8:16:32:64-S128"
target triple = "x86_64-pc-linux-gnu"

%struct.strbuf = type { i64, i64, ptr }

@__const.prefix_filename.path = private unnamed_addr constant %struct.strbuf { i64 0, i64 0, ptr @strbuf_slopbuf }, align 8
@.str = private unnamed_addr constant [2 x i8] c"-\00", align 1

; Function Attrs: inlinehint nounwind uwtable
define internal i32 @git_has_dos_drive_prefix(ptr noundef %0) #5 {
  %2 = alloca ptr, align 8
  store ptr %0, ptr %2, align 8, !tbaa !4
  ret i32 0
}

; Function Attrs: inlinehint nounwind uwtable
define internal i32 @git_is_dir_sep(i32 noundef %0) #5 {
  %2 = alloca i32, align 4
  store i32 %0, ptr %2, align 4, !tbaa !16
  %3 = load i32, ptr %2, align 4, !tbaa !16
  %4 = icmp eq i32 %3, 47
  %5 = zext i1 %4 to i32
  ret i32 %5
}

; Function Attrs: inlinehint nounwind uwtable
define internal void @strbuf_addstr(ptr noundef %0, ptr noundef %1) #5 {
  %3 = alloca ptr, align 8
  %4 = alloca ptr, align 8
  store ptr %0, ptr %3, align 8, !tbaa !14
  store ptr %1, ptr %4, align 8, !tbaa !4
  %5 = load ptr, ptr %3, align 8, !tbaa !14
  %6 = load ptr, ptr %4, align 8, !tbaa !4
  %7 = load ptr, ptr %4, align 8, !tbaa !4
  %8 = call i64 @strlen(ptr noundef %7) #11
  call void @strbuf_add(ptr noundef %5, ptr noundef %6, i64 noundef %8)
  ret void
}

; Function Attrs: inlinehint nounwind uwtable
define internal i32 @is_absolute_path(ptr noundef %0) #5 {
  %2 = alloca ptr, align 8
  store ptr %0, ptr %2, align 8, !tbaa !4
  %3 = load ptr, ptr %2, align 8, !tbaa !4
  %4 = getelementptr inbounds i8, ptr %3, i64 0
  %5 = load i8, ptr %4, align 1, !tbaa !17
  %6 = sext i8 %5 to i32
  %7 = call i32 @git_is_dir_sep(i32 noundef %6)
  %8 = icmp ne i32 %7, 0
  br i1 %8, label %13, label %9

9:                                                ; preds = %1
  %10 = load ptr, ptr %2, align 8, !tbaa !4
  %11 = call i32 @git_has_dos_drive_prefix(ptr noundef %10)
  %12 = icmp ne i32 %11, 0
  br label %13

13:                                               ; preds = %9, %1
  %14 = phi i1 [ true, %1 ], [ %12, %9 ]
  %15 = zext i1 %14 to i32
  ret i32 %15
}

; Function Attrs: nounwind uwtable
define dso_local ptr @prefix_filename(ptr noundef %0, ptr noundef %1) #0 {
  %3 = alloca ptr, align 8
  %4 = alloca ptr, align 8
  %5 = alloca %struct.strbuf, align 8
  %6 = alloca i64, align 8
  store ptr %0, ptr %3, align 8, !tbaa !4
  store ptr %1, ptr %4, align 8, !tbaa !4
  call void @llvm.lifetime.start.p0(i64 24, ptr %5) #9
  call void @llvm.memcpy.p0.p0.i64(ptr align 8 %5, ptr align 8 @__const.prefix_filename.path, i64 24, i1 false)
  call void @llvm.lifetime.start.p0(i64 8, ptr %6) #9
  %7 = load ptr, ptr %3, align 8, !tbaa !4
  %8 = icmp ne ptr %7, null
  br i1 %8, label %9, label %12

9:                                                ; preds = %2
  %10 = load ptr, ptr %3, align 8, !tbaa !4
  %11 = call i64 @strlen(ptr noundef %10) #11
  br label %13

12:                                               ; preds = %2
  br label %13

13:                                               ; preds = %12, %9
  %14 = phi i64 [ %11, %9 ], [ 0, %12 ]
  store i64 %14, ptr %6, align 8, !tbaa !24
  %15 = load i64, ptr %6, align 8, !tbaa !24
  %16 = icmp ne i64 %15, 0
  br i1 %16, label %18, label %17

17:                                               ; preds = %13
  br label %27

18:                                               ; preds = %13
  %19 = load ptr, ptr %4, align 8, !tbaa !4
  %20 = call i32 @is_absolute_path(ptr noundef %19)
  %21 = icmp ne i32 %20, 0
  br i1 %21, label %22, label %23

22:                                               ; preds = %18
  store i64 0, ptr %6, align 8, !tbaa !24
  br label %26

23:                                               ; preds = %18
  %24 = load ptr, ptr %3, align 8, !tbaa !4
  %25 = load i64, ptr %6, align 8, !tbaa !24
  call void @strbuf_add(ptr noundef %5, ptr noundef %24, i64 noundef %25)
  br label %26

26:                                               ; preds = %23, %22
  br label %27

27:                                               ; preds = %26, %17
  %28 = load ptr, ptr %4, align 8, !tbaa !4
  call void @strbuf_addstr(ptr noundef %5, ptr noundef %28)
  %29 = call ptr @strbuf_detach(ptr noundef %5, ptr noundef null)
  call void @llvm.lifetime.end.p0(i64 8, ptr %6) #9
  call void @llvm.lifetime.end.p0(i64 24, ptr %5) #9
  ret ptr %29
}

; Function Attrs: nounwind uwtable
define dso_local ptr @prefix_filename_except_for_dash(ptr noundef %0, ptr noundef %1) #0 {
  %3 = alloca ptr, align 8
  %4 = alloca ptr, align 8
  %5 = alloca ptr, align 8
  store ptr %0, ptr %4, align 8, !tbaa !4
  store ptr %1, ptr %5, align 8, !tbaa !4
  %6 = load ptr, ptr %5, align 8, !tbaa !4
  %7 = call i32 @strcmp(ptr noundef %6, ptr noundef @.str) #11
  %8 = icmp ne i32 %7, 0
  br i1 %8, label %12, label %9

9:                                                ; preds = %2
  %10 = load ptr, ptr %5, align 8, !tbaa !4
  %11 = call ptr @xstrdup(ptr noundef %10)
  store ptr %11, ptr %3, align 8
  br label %16

12:                                               ; preds = %2
  %13 = load ptr, ptr %4, align 8, !tbaa !4
  %14 = load ptr, ptr %5, align 8, !tbaa !4
  %15 = call ptr @prefix_filename(ptr noundef %13, ptr noundef %14)
  store ptr %15, ptr %3, align 8
  br label %16

16:                                               ; preds = %12, %9
  %17 = load ptr, ptr %3, align 8
  ret ptr %17
}