; Function Attrs: nounwind uwtable
define dso_local ptr @prefix_filename_except_for_dash(ptr noundef %0, ptr noundef %1) local_unnamed_addr #3 {
sub_0:
  %2 = alloca %struct.strbuf, align 8
  %3 = load i8, ptr %1, align 1
  %.not5 = icmp eq i8 %3, 45
  br i1 %.not5, label %.tail, label %.tail.thread

.tail:                                            ; preds = %sub_0
  %4 = getelementptr inbounds nuw i8, ptr %1, i64 1
  %5 = load i8, ptr %4, align 1
  %6 = icmp eq i8 %5, 0
  br i1 %6, label %7, label %.tail.thread

7:                                                ; preds = %.tail
  %8 = tail call ptr @xstrdup(ptr noundef nonnull %1) #12
  br label %14

.tail.thread:                                     ; preds = %sub_0, %.tail
  call void @llvm.lifetime.start.p0(i64 24, ptr nonnull %2) #12
  call void @llvm.memcpy.p0.p0.i64(ptr noundef nonnull align 8 dereferenceable(24) %2, ptr noundef nonnull align 8 dereferenceable(24) @__const.strbuf_realpath_1.symlink, i64 24, i1 false)
  %.not.i = icmp eq ptr %0, null
  br i1 %.not.i, label %prefix_filename.exit, label %9

9:                                                ; preds = %.tail.thread
  %10 = tail call i64 @strlen(ptr noundef nonnull dereferenceable(1) %0) #14
  %.not7.i = icmp eq i64 %10, 0
  %.not10.i = icmp eq i8 %3, 47
  %or.cond = or i1 %.not7.i, %.not10.i
  br i1 %or.cond, label %prefix_filename.exit, label %11

11:                                               ; preds = %9
  call void @strbuf_add(ptr noundef nonnull %2, ptr noundef nonnull %0, i64 noundef %10) #12
  br label %prefix_filename.exit

prefix_filename.exit:                             ; preds = %.tail.thread, %9, %11
  %12 = call i64 @strlen(ptr noundef nonnull dereferenceable(1) %1) #14
  call void @strbuf_add(ptr noundef nonnull %2, ptr noundef nonnull %1, i64 noundef %12) #12
  %13 = call ptr @strbuf_detach(ptr noundef nonnull %2, ptr noundef null) #12
  call void @llvm.lifetime.end.p0(i64 24, ptr nonnull %2) #12
  br label %14

14:                                               ; preds = %prefix_filename.exit, %7
  %.0 = phi ptr [ %13, %prefix_filename.exit ], [ %8, %7 ]
  ret ptr %.0
}